; Function Attrs: nounwind sspstrong uwtable
define dso_local void @tcg_gen_remu_i64(ptr noundef %0, ptr noundef %1, ptr noundef %2) local_unnamed_addr #2 {
  %4 = tail call ptr @tcg_temp_ebb_new_i64() #6
  %5 = tail call ptr @tcg_constant_i64(i64 noundef 0) #6
  %6 = tail call align 8 ptr @llvm.threadlocal.address.p0(ptr align 8 @tcg_ctx)
  %7 = load ptr, ptr %6, align 8
  %8 = ptrtoint ptr %4 to i64
  %9 = getelementptr inbounds nuw i8, ptr %7, i64 %8
  %10 = ptrtoint ptr %9 to i64
  %11 = ptrtoint ptr %0 to i64
  %12 = getelementptr inbounds nuw i8, ptr %7, i64 %11
  %13 = ptrtoint ptr %12 to i64
  %14 = ptrtoint ptr %1 to i64
  %15 = getelementptr inbounds nuw i8, ptr %7, i64 %14
  %16 = ptrtoint ptr %15 to i64
  %17 = ptrtoint ptr %5 to i64
  %18 = getelementptr inbounds nuw i8, ptr %7, i64 %17
  %19 = ptrtoint ptr %18 to i64
  %20 = ptrtoint ptr %2 to i64
  %21 = getelementptr inbounds nuw i8, ptr %7, i64 %20
  %22 = ptrtoint ptr %21 to i64
  %23 = tail call ptr @tcg_gen_op5(i32 noundef 86, i32 noundef 1, i64 noundef %10, i64 noundef %13, i64 noundef %16, i64 noundef %19, i64 noundef %22)
  tail call void @tcg_temp_free_i64(ptr noundef %4) #6
  ret void
}